target datalayout = "e-m:e-p270:32:32-p271:32:32-p272:64:64-i64:64-i128:128-f80:128-n8:16:32:64-S128"
target triple = "x86_64-pc-linux-gnu"

%struct.ExprContext = type { i32, ptr, ptr, ptr, ptr, ptr, ptr, ptr, ptr, ptr, i64, i8, i64, i8, ptr, ptr, ptr, ptr }
%struct.ExprContext_CB = type { ptr, ptr, i64 }

; Function Attrs: nounwind uwtable
define dso_local void @UnregisterExprContextCallback(ptr noundef %0, ptr noundef %1, i64 noundef %2) #0 {
  %4 = alloca ptr, align 8
  %5 = alloca ptr, align 8
  %6 = alloca i64, align 8
  %7 = alloca ptr, align 8
  %8 = alloca ptr, align 8
  store ptr %0, ptr %4, align 8
  store ptr %1, ptr %5, align 8
  store i64 %2, ptr %6, align 8
  call void @llvm.lifetime.start.p0(i64 8, ptr %7) #6
  call void @llvm.lifetime.start.p0(i64 8, ptr %8) #6
  %9 = load ptr, ptr %4, align 8
  %10 = getelementptr inbounds nuw %struct.ExprContext, ptr %9, i32 0, i32 17
  store ptr %10, ptr %7, align 8
  br label %11

11:                                               ; preds = %36, %3
  %12 = load ptr, ptr %7, align 8
  %13 = load ptr, ptr %12, align 8
  store ptr %13, ptr %8, align 8
  %14 = icmp ne ptr %13, null
  br i1 %14, label %15, label %37

15:                                               ; preds = %11
  %16 = load ptr, ptr %8, align 8
  %17 = getelementptr inbounds nuw %struct.ExprContext_CB, ptr %16, i32 0, i32 1
  %18 = load ptr, ptr %17, align 8
  %19 = load ptr, ptr %5, align 8
  %20 = icmp eq ptr %18, %19
  br i1 %20, label %21, label %33

21:                                               ; preds = %15
  %22 = load ptr, ptr %8, align 8
  %23 = getelementptr inbounds nuw %struct.ExprContext_CB, ptr %22, i32 0, i32 2
  %24 = load i64, ptr %23, align 8
  %25 = load i64, ptr %6, align 8
  %26 = icmp eq i64 %24, %25
  br i1 %26, label %27, label %33

27:                                               ; preds = %21
  %28 = load ptr, ptr %8, align 8
  %29 = getelementptr inbounds nuw %struct.ExprContext_CB, ptr %28, i32 0, i32 0
  %30 = load ptr, ptr %29, align 8
  %31 = load ptr, ptr %7, align 8
  store ptr %30, ptr %31, align 8
  %32 = load ptr, ptr %8, align 8
  call void @pfree(ptr noundef %32)
  br label %36

33:                                               ; preds = %21, %15
  %34 = load ptr, ptr %8, align 8
  %35 = getelementptr inbounds nuw %struct.ExprContext_CB, ptr %34, i32 0, i32 0
  store ptr %35, ptr %7, align 8
  br label %36

36:                                               ; preds = %33, %27
  br label %11, !llvm.loop !12

37:                                               ; preds = %11
  call void @llvm.lifetime.end.p0(i64 8, ptr %8) #6
  call void @llvm.lifetime.end.p0(i64 8, ptr %7) #6
  ret void
}