; Function Attrs: nounwind uwtable
define dso_local void @UnregisterExprContextCallback(ptr noundef captures(none) %0, ptr noundef readnone captures(address) %1, i64 noundef %2) local_unnamed_addr #0 {
  %4 = getelementptr inbounds nuw i8, ptr %0, i64 136
  %5 = load ptr, ptr %4, align 8
  %.not10 = icmp eq ptr %5, null
  br i1 %.not10, label %._crit_edge, label %.lr.ph

.lr.ph:                                           ; preds = %3, %16
  %6 = phi ptr [ %17, %16 ], [ %5, %3 ]
  %.011 = phi ptr [ %.1, %16 ], [ %4, %3 ]
  %7 = getelementptr inbounds nuw i8, ptr %6, i64 8
  %8 = load ptr, ptr %7, align 8
  %9 = icmp eq ptr %8, %1
  br i1 %9, label %10, label %16

10:                                               ; preds = %.lr.ph
  %11 = getelementptr inbounds nuw i8, ptr %6, i64 16
  %12 = load i64, ptr %11, align 8
  %13 = icmp eq i64 %12, %2
  br i1 %13, label %14, label %16

14:                                               ; preds = %10
  %15 = load ptr, ptr %6, align 8
  store ptr %15, ptr %.011, align 8
  tail call void @pfree(ptr noundef nonnull %6) #12
  br label %16

16:                                               ; preds = %.lr.ph, %10, %14
  %.1 = phi ptr [ %.011, %14 ], [ %6, %10 ], [ %6, %.lr.ph ]
  %17 = load ptr, ptr %.1, align 8
  %.not = icmp eq ptr %17, null
  br i1 %.not, label %._crit_edge, label %.lr.ph, !llvm.loop !12

._crit_edge:                                      ; preds = %16, %3
  ret void
}